; Function Attrs: mustprogress uwtable
define void @_ZN3nix19PosixSourceAccessorC2Ev(ptr noundef nonnull align 8 dereferenceable(56) %0, ptr nocapture noundef readonly %1) unnamed_addr #4 align 2 personality ptr @__gxx_personality_v0 {
  %3 = alloca %"class.std::allocator", align 1
  %4 = alloca %"class.std::filesystem::__cxx11::path", align 8
  call void @llvm.lifetime.start.p0(i64 1, ptr nonnull %3)
  %5 = getelementptr inbounds i8, ptr %4, i64 16
  call void @_ZNSaIcEC1Ev(ptr noundef nonnull align 1 dereferenceable(1) %3) #27
  call void @_ZNSaIcEC2ERKS_(ptr noundef nonnull align 1 dereferenceable(1) %4, ptr noundef nonnull align 1 dereferenceable(1) %3) #27
  store ptr %5, ptr %4, align 8
  call void @_ZNSaIcED1Ev(ptr noundef nonnull align 1 dereferenceable(1) %3) #27
  %6 = getelementptr inbounds i8, ptr %4, i64 8
  store i64 0, ptr %6, align 8
  %7 = load ptr, ptr %4, align 8
  store i8 0, ptr %7, align 1
  call void @llvm.lifetime.end.p0(i64 1, ptr nonnull %3)
  %8 = getelementptr inbounds i8, ptr %4, i64 32
  invoke void @_ZNSt10filesystem7__cxx114path5_ListC1Ev(ptr noundef nonnull align 8 dereferenceable(8) %8)
          to label %_ZNSt10filesystem7__cxx114pathC2Ev.exit unwind label %9

9:                                                ; preds = %2
  %10 = landingpad { ptr, i32 }
          catch ptr null
  %11 = extractvalue { ptr, i32 } %10, 0
  call void @__clang_call_terminate(ptr %11) #28
  unreachable

_ZNSt10filesystem7__cxx114pathC2Ev.exit:          ; preds = %2
  invoke void @_ZN3nix19PosixSourceAccessorC2EONSt10filesystem7__cxx114pathE(ptr noundef nonnull align 8 dereferenceable(56) %0, ptr noundef %1, ptr noundef nonnull align 8 dereferenceable(40) %4)
          to label %12 unwind label %19

12:                                               ; preds = %_ZNSt10filesystem7__cxx114pathC2Ev.exit
  %13 = load ptr, ptr %8, align 8
  %.not.i.i.i = icmp eq ptr %13, null
  br i1 %.not.i.i.i, label %_ZNSt10filesystem7__cxx114path5_ListD2Ev.exit.i, label %14

14:                                               ; preds = %12
  call void @_ZNKSt10filesystem7__cxx114path5_List13_Impl_deleterclEPNS2_5_ImplE(ptr noundef nonnull align 1 dereferenceable(1) %8, ptr noundef nonnull %13) #27
  br label %_ZNSt10filesystem7__cxx114path5_ListD2Ev.exit.i

_ZNSt10filesystem7__cxx114path5_ListD2Ev.exit.i:  ; preds = %14, %12
  store ptr null, ptr %8, align 8
  %15 = load ptr, ptr %4, align 8
  %16 = icmp eq ptr %15, %5
  br i1 %16, label %_ZNKSt7__cxx1112basic_stringIcSt11char_traitsIcESaIcEE11_M_is_localEv.exit.thread.i.i.i, label %_ZNKSt7__cxx1112basic_stringIcSt11char_traitsIcESaIcEE11_M_is_localEv.exit.i.i.i

_ZNKSt7__cxx1112basic_stringIcSt11char_traitsIcESaIcEE11_M_is_localEv.exit.thread.i.i.i: ; preds = %_ZNSt10filesystem7__cxx114path5_ListD2Ev.exit.i
  %17 = load i64, ptr %6, align 8
  %18 = icmp ult i64 %17, 16
  call void @llvm.assume(i1 %18)
  br label %_ZNSt10filesystem7__cxx114pathD2Ev.exit

_ZNKSt7__cxx1112basic_stringIcSt11char_traitsIcESaIcEE11_M_is_localEv.exit.i.i.i: ; preds = %_ZNSt10filesystem7__cxx114path5_ListD2Ev.exit.i
  call void @_ZdlPv(ptr noundef %15) #29
  br label %_ZNSt10filesystem7__cxx114pathD2Ev.exit

_ZNSt10filesystem7__cxx114pathD2Ev.exit:          ; preds = %_ZNKSt7__cxx1112basic_stringIcSt11char_traitsIcESaIcEE11_M_is_localEv.exit.thread.i.i.i, %_ZNKSt7__cxx1112basic_stringIcSt11char_traitsIcESaIcEE11_M_is_localEv.exit.i.i.i
  call void @_ZNSaIcED2Ev(ptr noundef nonnull align 1 dereferenceable(1) %4) #27
  ret void

19:                                               ; preds = %_ZNSt10filesystem7__cxx114pathC2Ev.exit
  %20 = landingpad { ptr, i32 }
          cleanup
  call void @_ZNSt10filesystem7__cxx114pathD2Ev(ptr noundef nonnull align 8 dereferenceable(40) %4) #27
  resume { ptr, i32 } %20
}